Certificate:
    Data:
        Version: 1 (0x0)
        Serial Number: 4665 (0x1239)
    Signature Algorithm: sha256WithRSAEncryption
        Issuer: C=DE, ST=NRW, L=Wenden, O=STR, CN=qsp-server-1.str-elektronik.de
        Validity
            Not Before: Apr 24 12:27:55 2020 GMT
            Not After : Apr 24 12:27:55 2021 GMT
        Subject: C=DE, ST=NRW, L=Attendorn, O=Internet Widgits Pty Ltd, CN=localhost
        Subject Public Key Info:
            Public Key Algorithm: rsaEncryption
                Public-Key: (1024 bit)
                Modulus:
                    00:c0:4d:7d:2e:ec:64:cf:76:4f:6e:d4:8a:2e:8e:
                    29:0e:cb:2e:0a:bf:4d:05:34:25:3c:0f:82:6b:2c:
                    0a:d1:d0:04:79:0f:ba:df:03:ee:59:99:25:04:9e:
                    fb:e3:48:64:02:5a:89:60:df:17:3a:18:70:3c:40:
                    97:e3:33:42:df:3a:18:5e:bf:c6:73:96:00:72:a9:
                    c4:ac:76:c3:9a:7e:6b:cf:31:24:0d:f8:a9:bf:d0:
                    82:51:88:11:2d:fb:e7:f8:e8:0a:7c:40:8a:36:dc:
                    f9:26:32:97:14:23:5d:fa:c5:dd:04:2d:4a:46:e4:
                    9d:e5:20:83:b2:48:e7:8d:4d
                Exponent: 65537 (0x10001)
    Signature Algorithm: sha256WithRSAEncryption
         60:e5:1b:2b:f1:02:29:1c:25:fd:80:58:98:d8:e8:4c:7e:56:
         dd:7b:50:59:0e:5d:73:34:3c:c9:66:14:3f:4a:78:80:b5:49:
         9b:52:9f:ac:da:4f:a0:4b:5e:6e:cf:db:d7:ec:4a:5c:a0:09:
         92:d7:58:80:16:ac:7a:b9:7e:df:d3:eb:19:46:05:6e:84:a6:
         cb:df:d3:94:37:32:58:e3:13:44:fc:28:ac:44:bf:ae:96:32:
         e6:d6:8b:5c:b2:ff:27:29:e9:0d:d4:97:b6:b0:03:b7:fd:cb:
         80:1b:d8:23:35:71:d8:d4:eb:c9:41:cd:5b:d2:9a:3c:67:1e:
         0d:0f:b5:22:dc:69:0a:c4:97:10:cc:fa:84:2c:96:78:de:0e:
         f0:e5:0c:13:4e:f8:4b:ce:ca:3b:ef:54:c6:14:29:e8:c2:59:
         3a:07:e4:da:56:88:92:74:6c:f9:a7:df:93:cb:ab:fa:23:a2:
         02:7a:ad:b9:f5:5e:bb:35:2c:8f:25:34:1f:19:fd:c8:39:ed:
         b5:bb:e3:20:67:86:38:ab:9f:7c:62:cf:2c:13:e0:7c:3c:86:
         2d:5a:21:68:cd:3f:be:5f:1d:ee:b8:20:fd:b6:cf:37:aa:4e:
         51:4e:a0:11:19:78:33:58:2a:48:91:f2:83:f1:3f:7a:52:18:
         df:3a:c4:d6:29:a1:d3:69:9a:51:e6:21:fa:ff:5a:1c:19:db:
         ec:64:1e:52:d7:16:ac:3a:04:8e:f8:b2:73:fd:46:22:88:ca:
         51:1a:92:20:71:d2:09:7e:10:26:94:2f:3c:6d:86:ef:ee:ae:
         7e:eb:ff:af:1c:5f:85:8e:c0:35:22:8d:40:5d:7a:6c:06:c7:
         23:0c:55:6d:bc:ec:4d:7e:8e:75:a7:68:18:56:01:89:0d:85:
         48:41:22:3a:04:07:63:5c:71:fb:40:eb:4a:60:25:fb:43:02:
         65:ff:a7:b9:16:5c:32:38:96:77:d1:27:de:a8:54:b6:01:a1:
         f4:9a:88:ad:a4:65:fc:30:91:db:74:7e:a9:9f:3c:71:c5:a8:
         2b:da:82:d1:3a:23:3f:7d:4a:54:ce:cb:32:c4:44:58:b0:1b:
         30:ef:2c:2f:f7:85:bc:6b:3b:51:9f:0e:43:87:9d:67:64:f4:
         fd:ed:55:c1:5c:65:8b:24:32:32:dd:c1:89:66:04:ee:13:58:
         02:e2:a5:ec:ec:61:eb:63:3e:33:0d:6d:ca:46:f8:10:ba:a8:
         ea:92:37:b5:0e:e4:2f:66:98:f5:af:73:28:5c:28:c1:c0:e9:
         38:54:38:a5:aa:5e:10:0f:49:a7:9f:f6:87:51:cc:90:2f:33:
         e1:11:fa:f7:8f:e8:41:60
-----BEGIN CERTIFICATE-----
MIIDujCCAaICAhI5MA0GCSqGSIb3DQEBCwUAMGMxCzAJBgNVBAYTAkRFMQwwCgYD
VQQIDANOUlcxDzANBgNVBAcMBldlbmRlbjEMMAoGA1UECgwDU1RSMScwJQYDVQQD
DB5xc3Atc2VydmVyLTEuc3RyLWVsZWt0cm9uaWsuZGUwHhcNMjAwNDI0MTIyNzU1
WhcNMjEwNDI0MTIyNzU1WjBmMQswCQYDVQQGEwJERTEMMAoGA1UECAwDTlJXMRIw
EAYDVQQHDAlBdHRlbmRvcm4xITAfBgNVBAoMGEludGVybmV0IFdpZGdpdHMgUHR5
IEx0ZDESMBAGA1UEAwwJbG9jYWxob3N0MIGfMA0GCSqGSIb3DQEBAQUAA4GNADCB
iQKBgQDATX0u7GTPdk9u1IoujikOyy4Kv00FNCU8D4JrLArR0AR5D7rfA+5ZmSUE
nvvjSGQCWolg3xc6GHA8QJfjM0LfOhhev8ZzlgByqcSsdsOafmvPMSQN+Km/0IJR
iBEt++f46Ap8QIo23PkmMpcUI136xd0ELUpG5J3lIIOySOeNTQIDAQABMA0GCSqG
SIb3DQEBCwUAA4ICAQBg5Rsr8QIpHCX9gFiY2OhMflbde1BZDl1zNDzJZhQ/SniA
tUmbUp+s2k+gS15uz9vX7EpcoAmS11iAFqx6uX7f0+sZRgVuhKbL39OUNzJY4xNE
/CisRL+uljLm1otcsv8nKekN1Je2sAO3/cuAG9gjNXHY1OvJQc1b0po8Zx4ND7Ui
3GkKxJcQzPqELJZ43g7w5QwTTvhLzso771TGFCnowlk6B+TaVoiSdGz5p9+Ty6v6
I6ICeq259V67NSyPJTQfGf3IOe21u+MgZ4Y4q598Ys8sE+B8PIYtWiFozT++Xx3u
uCD9ts83qk5RTqARGXgzWCpIkfKD8T96UhjfOsTWKaHTaZpR5iH6/1ocGdvsZB5S
1xasOgSO+LJz/UYiiMpRGpIgcdIJfhAmlC88bYbv7q5+6/+vHF+FjsA1Io1AXXps
BscjDFVtvOxNfo51p2gYVgGJDYVIQSI6BAdjXHH7QOtKYCX7QwJl/6e5FlwyOJZ3
0SfeqFS2AaH0moitpGX8MJHbdH6pnzxxxagr2oLROiM/fUpUzssyxERYsBsw7ywv
94W8aztRnw5Dh51nZPT97VXBXGWLJDIy3cGJZgTuE1gC4qXs7GHrYz4zDW3KRvgQ
uqjqkje1DuQvZpj1r3MoXCjBwOk4VDilql4QD0mnn/aHUcyQLzPhEfr3j+hBYA==
-----END CERTIFICATE-----
